#include <math.h>
#include <stdio.h>
#include <stdlib.h>
#include <string.h>

int main(){
	struct point{
		char id[10];
		int age;
	}patient[100];
	int n;
	int i,j,k;
	int on=0,old[100],flag;
	scanf("%d",&n);
	for(i=0;i<n;i++){
		scanf("%s%d",patient[i].id,&patient[i].age);
	}
	for(j=120;j>=60;j--){
		for(i=0;i<n;i++){
			if(patient[i].age==j){
				printf("%s\n",patient[i].id);
				old[on]=i;
				on++;
			}
		}
	}
	for(i=0;i<n;i++){
		flag=0;
		for(k=0;k<on;k++){
			if(i==old[k]){
				flag=1;
				break;
			}
		}
		if(flag==0){
			printf("%s\n",patient[i].id);
		}
	}
	return 0;
}